; ModuleID = 'source-C-CXX/48/1010.cpp'
source_filename = "source-C-CXX/48/1010.cpp"
target datalayout = "e-m:e-p270:32:32-p271:32:32-p272:64:64-i64:64-f80:128-n8:16:32:64-S128"
target triple = "x86_64-pc-linux-gnu"

%"class.std::ios_base::Init" = type { i8 }
%"class.std::basic_istream" = type { i32 (...)**, i64, %"class.std::basic_ios" }
%"class.std::basic_ios" = type { %"class.std::ios_base", %"class.std::basic_ostream"*, i8, i8, %"class.std::basic_streambuf"*, %"class.std::ctype"*, %"class.std::num_put"*, %"class.std::num_get"* }
%"class.std::ios_base" = type { i32 (...)**, i64, i64, i32, i32, i32, %"struct.std::ios_base::_Callback_list"*, %"struct.std::ios_base::_Words", [8 x %"struct.std::ios_base::_Words"], i32, %"struct.std::ios_base::_Words"*, %"class.std::locale" }
%"struct.std::ios_base::_Callback_list" = type { %"struct.std::ios_base::_Callback_list"*, void (i32, %"class.std::ios_base"*, i32)*, i32, i32 }
%"struct.std::ios_base::_Words" = type { i8*, i64 }
%"class.std::locale" = type { %"class.std::locale::_Impl"* }
%"class.std::locale::_Impl" = type { i32, %"class.std::locale::facet"**, i64, %"class.std::locale::facet"**, i8** }
%"class.std::locale::facet" = type <{ i32 (...)**, i32, [4 x i8] }>
%"class.std::basic_ostream" = type { i32 (...)**, %"class.std::basic_ios" }
%"class.std::basic_streambuf" = type { i32 (...)**, i8*, i8*, i8*, i8*, i8*, i8*, %"class.std::locale" }
%"class.std::ctype" = type <{ %"class.std::locale::facet.base", [4 x i8], %struct.__locale_struct*, i8, [7 x i8], i32*, i32*, i16*, i8, [256 x i8], [256 x i8], i8, [6 x i8] }>
%"class.std::locale::facet.base" = type <{ i32 (...)**, i32 }>
%struct.__locale_struct = type { [13 x %struct.__locale_data*], i16*, i32*, i32*, [13 x i8*] }
%struct.__locale_data = type opaque
%"class.std::num_put" = type { %"class.std::locale::facet.base", [4 x i8] }
%"class.std::num_get" = type { %"class.std::locale::facet.base", [4 x i8] }

@_ZStL8__ioinit = internal global %"class.std::ios_base::Init" zeroinitializer, align 1
@__dso_handle = external hidden global i8
@_ZSt3cin = external global %"class.std::basic_istream", align 8
@_ZSt4cout = external global %"class.std::basic_ostream", align 8
@llvm.global_ctors = appending global [1 x { i32, void ()*, i8* }] [{ i32, void ()*, i8* } { i32 65535, void ()* @_GLOBAL__sub_I_1010.cpp, i8* null }]

declare void @_ZNSt8ios_base4InitC1Ev(%"class.std::ios_base::Init"* nonnull align 1 dereferenceable(1)) unnamed_addr #0

; Function Attrs: nounwind
declare void @_ZNSt8ios_base4InitD1Ev(%"class.std::ios_base::Init"* nonnull align 1 dereferenceable(1)) unnamed_addr #1

; Function Attrs: nofree nounwind
declare i32 @__cxa_atexit(void (i8*)*, i8*, i8*) local_unnamed_addr #2

; Function Attrs: mustprogress norecurse sspstrong uwtable
define dso_local i32 @main() local_unnamed_addr #3 {
  %1 = alloca i8, align 1
  %2 = alloca [500 x i8], align 16
  %3 = getelementptr inbounds [500 x i8], [500 x i8]* %2, i64 0, i64 0
  call void @llvm.lifetime.start.p0i8(i64 500, i8* nonnull %3) #8
  %4 = load i8*, i8** bitcast (%"class.std::basic_istream"* @_ZSt3cin to i8**), align 8, !tbaa !5
  %5 = getelementptr i8, i8* %4, i64 -24
  %6 = bitcast i8* %5 to i64*
  %7 = load i64, i64* %6, align 8
  %8 = add nsw i64 %7, 240
  %9 = getelementptr inbounds i8, i8* bitcast (%"class.std::basic_istream"* @_ZSt3cin to i8*), i64 %8
  %10 = bitcast i8* %9 to %"class.std::ctype"**
  %11 = load %"class.std::ctype"*, %"class.std::ctype"** %10, align 8, !tbaa !8
  %12 = icmp eq %"class.std::ctype"* %11, null
  br i1 %12, label %13, label %14

13:                                               ; preds = %0
  tail call void @_ZSt16__throw_bad_castv() #9
  unreachable

14:                                               ; preds = %0
  %15 = getelementptr inbounds %"class.std::ctype", %"class.std::ctype"* %11, i64 0, i32 8
  %16 = load i8, i8* %15, align 8, !tbaa !13
  %17 = icmp eq i8 %16, 0
  br i1 %17, label %21, label %18

18:                                               ; preds = %14
  %19 = getelementptr inbounds %"class.std::ctype", %"class.std::ctype"* %11, i64 0, i32 9, i64 10
  %20 = load i8, i8* %19, align 1, !tbaa !15
  br label %27

21:                                               ; preds = %14
  tail call void @_ZNKSt5ctypeIcE13_M_widen_initEv(%"class.std::ctype"* nonnull align 8 dereferenceable(570) %11)
  %22 = bitcast %"class.std::ctype"* %11 to i8 (%"class.std::ctype"*, i8)***
  %23 = load i8 (%"class.std::ctype"*, i8)**, i8 (%"class.std::ctype"*, i8)*** %22, align 8, !tbaa !5
  %24 = getelementptr inbounds i8 (%"class.std::ctype"*, i8)*, i8 (%"class.std::ctype"*, i8)** %23, i64 6
  %25 = load i8 (%"class.std::ctype"*, i8)*, i8 (%"class.std::ctype"*, i8)** %24, align 8
  %26 = tail call signext i8 %25(%"class.std::ctype"* nonnull align 8 dereferenceable(570) %11, i8 signext 10)
  br label %27

27:                                               ; preds = %18, %21
  %28 = phi i8 [ %20, %18 ], [ %26, %21 ]
  %29 = call nonnull align 8 dereferenceable(16) %"class.std::basic_istream"* @_ZNSi7getlineEPclc(%"class.std::basic_istream"* nonnull align 8 dereferenceable(16) @_ZSt3cin, i8* nonnull %3, i64 500, i8 signext %28)
  %30 = call i64 @strlen(i8* noundef nonnull %3) #10
  %31 = trunc i64 %30 to i32
  %32 = icmp slt i32 %31, 2
  br i1 %32, label %113, label %33

33:                                               ; preds = %27
  %34 = add i64 %30, 1
  %35 = and i64 %34, 4294967295
  br label %36

36:                                               ; preds = %33, %110
  %37 = phi i32 [ %31, %33 ], [ %39, %110 ]
  %38 = phi i64 [ 2, %33 ], [ %111, %110 ]
  %39 = add i32 %37, -1
  %40 = trunc i64 %38 to i32
  %41 = lshr i32 %40, 1
  %42 = icmp slt i32 %31, %40
  br i1 %42, label %110, label %43

43:                                               ; preds = %36
  %44 = zext i32 %39 to i64
  %45 = zext i32 %41 to i64
  br label %46

46:                                               ; preds = %43, %94
  %47 = phi i64 [ %38, %43 ], [ %96, %94 ]
  %48 = phi i64 [ 0, %43 ], [ %95, %94 ]
  %49 = add nuw nsw i64 %48, %38
  %50 = trunc i64 %49 to i32
  br label %51

51:                                               ; preds = %46, %105
  %52 = phi i64 [ 0, %46 ], [ %106, %105 ]
  %53 = phi i32 [ 0, %46 ], [ %107, %105 ]
  %54 = add nuw nsw i64 %52, %48
  %55 = getelementptr inbounds [500 x i8], [500 x i8]* %2, i64 0, i64 %54
  %56 = load i8, i8* %55, align 1, !tbaa !15
  %57 = xor i32 %53, -1
  %58 = add nsw i32 %50, %57
  %59 = sext i32 %58 to i64
  %60 = getelementptr inbounds [500 x i8], [500 x i8]* %2, i64 0, i64 %59
  %61 = load i8, i8* %60, align 1, !tbaa !15
  %62 = icmp eq i8 %56, %61
  br i1 %62, label %105, label %63

63:                                               ; preds = %51
  %64 = trunc i64 %52 to i32
  %65 = icmp eq i32 %41, %64
  br i1 %65, label %66, label %94

66:                                               ; preds = %105, %63
  br label %98

67:                                               ; preds = %98
  %68 = load i8*, i8** bitcast (%"class.std::basic_ostream"* @_ZSt4cout to i8**), align 8, !tbaa !5
  %69 = getelementptr i8, i8* %68, i64 -24
  %70 = bitcast i8* %69 to i64*
  %71 = load i64, i64* %70, align 8
  %72 = add nsw i64 %71, 240
  %73 = getelementptr inbounds i8, i8* bitcast (%"class.std::basic_ostream"* @_ZSt4cout to i8*), i64 %72
  %74 = bitcast i8* %73 to %"class.std::ctype"**
  %75 = load %"class.std::ctype"*, %"class.std::ctype"** %74, align 8, !tbaa !8
  %76 = icmp eq %"class.std::ctype"* %75, null
  br i1 %76, label %109, label %77

77:                                               ; preds = %67
  %78 = getelementptr inbounds %"class.std::ctype", %"class.std::ctype"* %75, i64 0, i32 8
  %79 = load i8, i8* %78, align 8, !tbaa !13
  %80 = icmp eq i8 %79, 0
  br i1 %80, label %84, label %81

81:                                               ; preds = %77
  %82 = getelementptr inbounds %"class.std::ctype", %"class.std::ctype"* %75, i64 0, i32 9, i64 10
  %83 = load i8, i8* %82, align 1, !tbaa !15
  br label %90

84:                                               ; preds = %77
  call void @_ZNKSt5ctypeIcE13_M_widen_initEv(%"class.std::ctype"* nonnull align 8 dereferenceable(570) %75)
  %85 = bitcast %"class.std::ctype"* %75 to i8 (%"class.std::ctype"*, i8)***
  %86 = load i8 (%"class.std::ctype"*, i8)**, i8 (%"class.std::ctype"*, i8)*** %85, align 8, !tbaa !5
  %87 = getelementptr inbounds i8 (%"class.std::ctype"*, i8)*, i8 (%"class.std::ctype"*, i8)** %86, i64 6
  %88 = load i8 (%"class.std::ctype"*, i8)*, i8 (%"class.std::ctype"*, i8)** %87, align 8
  %89 = call signext i8 %88(%"class.std::ctype"* nonnull align 8 dereferenceable(570) %75, i8 signext 10)
  br label %90

90:                                               ; preds = %84, %81
  %91 = phi i8 [ %83, %81 ], [ %89, %84 ]
  %92 = call nonnull align 8 dereferenceable(8) %"class.std::basic_ostream"* @_ZNSo3putEc(%"class.std::basic_ostream"* nonnull align 8 dereferenceable(8) @_ZSt4cout, i8 signext %91)
  %93 = call nonnull align 8 dereferenceable(8) %"class.std::basic_ostream"* @_ZNSo5flushEv(%"class.std::basic_ostream"* nonnull align 8 dereferenceable(8) %92)
  br label %94

94:                                               ; preds = %90, %63
  %95 = add nuw nsw i64 %48, 1
  %96 = add nuw nsw i64 %47, 1
  %97 = icmp eq i64 %95, %44
  br i1 %97, label %110, label %46, !llvm.loop !16

98:                                               ; preds = %66, %98
  %99 = phi i64 [ %103, %98 ], [ %48, %66 ]
  %100 = getelementptr inbounds [500 x i8], [500 x i8]* %2, i64 0, i64 %99
  %101 = load i8, i8* %100, align 1, !tbaa !15
  call void @llvm.lifetime.start.p0i8(i64 1, i8* nonnull %1)
  store i8 %101, i8* %1, align 1, !tbaa !15
  %102 = call nonnull align 8 dereferenceable(8) %"class.std::basic_ostream"* @_ZSt16__ostream_insertIcSt11char_traitsIcEERSt13basic_ostreamIT_T0_ES6_PKS3_l(%"class.std::basic_ostream"* nonnull align 8 dereferenceable(8) @_ZSt4cout, i8* nonnull %1, i64 1)
  call void @llvm.lifetime.end.p0i8(i64 1, i8* nonnull %1)
  %103 = add nuw nsw i64 %99, 1
  %104 = icmp eq i64 %103, %47
  br i1 %104, label %67, label %98, !llvm.loop !18

105:                                              ; preds = %51
  %106 = add nuw nsw i64 %52, 1
  %107 = add nuw nsw i32 %53, 1
  %108 = icmp eq i64 %106, %45
  br i1 %108, label %66, label %51, !llvm.loop !19

109:                                              ; preds = %67
  call void @_ZSt16__throw_bad_castv() #9
  unreachable

110:                                              ; preds = %94, %36
  %111 = add nuw nsw i64 %38, 1
  %112 = icmp eq i64 %111, %35
  br i1 %112, label %113, label %36, !llvm.loop !20

113:                                              ; preds = %110, %27
  call void @llvm.lifetime.end.p0i8(i64 500, i8* nonnull %3) #8
  ret i32 0
}

; Function Attrs: argmemonly mustprogress nofree nosync nounwind willreturn
declare void @llvm.lifetime.start.p0i8(i64 immarg, i8* nocapture) #4

; Function Attrs: argmemonly mustprogress nofree nounwind readonly willreturn
declare i64 @strlen(i8* nocapture) local_unnamed_addr #5

; Function Attrs: argmemonly mustprogress nofree nosync nounwind willreturn
declare void @llvm.lifetime.end.p0i8(i64 immarg, i8* nocapture) #4

declare nonnull align 8 dereferenceable(16) %"class.std::basic_istream"* @_ZNSi7getlineEPclc(%"class.std::basic_istream"* nonnull align 8 dereferenceable(16), i8*, i64, i8 signext) local_unnamed_addr #0

; Function Attrs: noreturn
declare void @_ZSt16__throw_bad_castv() local_unnamed_addr #6

declare void @_ZNKSt5ctypeIcE13_M_widen_initEv(%"class.std::ctype"* nonnull align 8 dereferenceable(570)) local_unnamed_addr #0

declare nonnull align 8 dereferenceable(8) %"class.std::basic_ostream"* @_ZSt16__ostream_insertIcSt11char_traitsIcEERSt13basic_ostreamIT_T0_ES6_PKS3_l(%"class.std::basic_ostream"* nonnull align 8 dereferenceable(8), i8*, i64) local_unnamed_addr #0

declare nonnull align 8 dereferenceable(8) %"class.std::basic_ostream"* @_ZNSo3putEc(%"class.std::basic_ostream"* nonnull align 8 dereferenceable(8), i8 signext) local_unnamed_addr #0

declare nonnull align 8 dereferenceable(8) %"class.std::basic_ostream"* @_ZNSo5flushEv(%"class.std::basic_ostream"* nonnull align 8 dereferenceable(8)) local_unnamed_addr #0

; Function Attrs: sspstrong uwtable
define internal void @_GLOBAL__sub_I_1010.cpp() #7 section ".text.startup" {
  tail call void @_ZNSt8ios_base4InitC1Ev(%"class.std::ios_base::Init"* nonnull align 1 dereferenceable(1) @_ZStL8__ioinit)
  %1 = tail call i32 @__cxa_atexit(void (i8*)* bitcast (void (%"class.std::ios_base::Init"*)* @_ZNSt8ios_base4InitD1Ev to void (i8*)*), i8* getelementptr inbounds (%"class.std::ios_base::Init", %"class.std::ios_base::Init"* @_ZStL8__ioinit, i64 0, i32 0), i8* nonnull @__dso_handle) #8
  ret void
}


!llvm.module.flags = !{!0, !1, !2, !3}
!llvm.ident = !{!4}

!0 = !{i32 1, !"wchar_size", i32 4}
!1 = !{i32 7, !"PIC Level", i32 2}
!2 = !{i32 7, !"PIE Level", i32 2}
!3 = !{i32 7, !"uwtable", i32 1}
!4 = !{!"clang version 13.0.0"}
!5 = !{!6, !6, i64 0}
!6 = !{!"vtable pointer", !7, i64 0}
!7 = !{!"Simple C++ TBAA"}
!8 = !{!9, !10, i64 240}
!9 = !{!"_ZTSSt9basic_iosIcSt11char_traitsIcEE", !10, i64 216, !11, i64 224, !12, i64 225, !10, i64 232, !10, i64 240, !10, i64 248, !10, i64 256}
!10 = !{!"any pointer", !11, i64 0}
!11 = !{!"omnipotent char", !7, i64 0}
!12 = !{!"bool", !11, i64 0}
!13 = !{!14, !11, i64 56}
!14 = !{!"_ZTSSt5ctypeIcE", !10, i64 16, !12, i64 24, !10, i64 32, !10, i64 40, !10, i64 48, !11, i64 56, !11, i64 57, !11, i64 313, !11, i64 569}
!15 = !{!11, !11, i64 0}
!16 = distinct !{!16, !17}
!17 = !{!"llvm.loop.mustprogress"}
!18 = distinct !{!18, !17}
!19 = distinct !{!19, !17}
!20 = distinct !{!20, !17}
